(dp1
((I5
I7
tp2
(I6
I7
tp3
tp4
F1
s((I12
I6
tp5
(I12
I6
tp6
tp7
F0.53246753246753242
s((I6
I7
tp8
(I7
I6
tp9
tp10
F0.0040322580645161289
s((I7
I6
tp11
(I7
I5
tp12
tp13
F0.63414634146341464
s((I13
I8
tp14
(I14
I9
tp15
tp16
F0.11797752808988764
s((I17
I8
tp17
(I16
I8
tp18
tp19
F0.29473684210526313
s((I13
I9
tp20
(I14
I9
tp21
tp22
F0.31666666666666665
s((I21
I9
tp23
(I22
I8
tp24
tp25
F0.23076923076923078
s((I19
I5
tp26
(I19
I6
tp27
tp28
F0.17156862745098039
s(g8
(I6
I7
tp29
tp30
F0.70967741935483875
s((I20
I5
tp31
(I19
I5
tp32
tp33
F0.33870967741935482
s(g20
(I13
I9
tp34
tp35
F0.18333333333333332
s(g31
(I21
I5
tp36
tp37
F0.4838709677419355
s((I6
I9
tp38
(I5
I10
tp39
tp40
F0.15827338129496402
s((I20
I6
tp41
(I20
I5
tp42
tp43
F0.19339622641509435
s((I21
I5
tp44
(I21
I5
tp45
tp46
F0.5
s((I4
I9
tp47
(I4
I8
tp48
tp49
F0.0040983606557377051
s((I21
I7
tp50
(I21
I7
tp51
tp52
F0.75776397515527949
s((I19
I4
tp53
(I20
I4
tp54
tp55
F0.28813559322033899
s(g50
(I21
I6
tp56
tp57
F0.071428571428571425
s((I13
I10
tp58
(I13
I9
tp59
tp60
F0.37062937062937062
s((I11
I5
tp61
(I12
I6
tp62
tp63
F0.18840579710144928
s((I12
I7
tp64
(I13
I7
tp65
tp66
F0.021097046413502109
s((I15
I8
tp67
(I16
I7
tp68
tp69
F0.077720207253886009
s((I21
I8
tp70
(I21
I7
tp71
tp72
F0.50980392156862742
s((I5
I10
tp73
(I5
I10
tp74
tp75
F0.54430379746835444
s(g41
(I20
I6
tp76
tp77
F0.63207547169811318
s((I15
I10
tp78
(I15
I10
tp79
tp80
F0.53333333333333333
s(g41
(I19
I6
tp81
tp82
F0.084905660377358486
s(g58
(I13
I10
tp83
tp84
F0.5174825174825175
s((I5
I9
tp85
(I5
I9
tp86
tp87
F0.27966101694915252
s((I16
I7
tp88
(I16
I6
tp89
tp90
F0.27906976744186046
s((I10
I4
tp91
(I11
I5
tp92
tp93
F0.10884353741496598
s((I21
I6
tp94
(I22
I6
tp95
tp96
F0.41176470588235292
s((I19
I6
tp97
(I19
I5
tp98
tp99
F0.33333333333333331
s((I2
I9
tp100
(I2
I9
tp101
tp102
F0.22222222222222221
s(g50
(I20
I7
tp103
tp104
F0.009316770186335404
s((I22
I9
tp105
(I21
I8
tp106
tp107
F0.33333333333333331
s(g61
(I11
I5
tp108
tp109
F0.47826086956521741
s(g94
(I21
I6
tp110
tp111
F0.3949579831932773
s((I4
I10
tp112
(I3
I10
tp113
tp114
F0.3364485981308411
s((I8
I4
tp115
(I9
I4
tp116
tp117
F0.47972972972972971
s((I8
I5
tp118
(I8
I6
tp119
tp120
F0.11267605633802817
s((I14
I10
tp121
(I13
I9
tp122
tp123
F0.027450980392156862
s((I6
I8
tp124
(I6
I8
tp125
tp126
F0.077669902912621352
s((I16
I9
tp127
(I15
I9
tp128
tp129
F0.31612903225806449
s((I3
I10
tp130
(I3
I10
tp131
tp132
F0.61340206185567014
s((I18
I6
tp133
(I17
I7
tp134
tp135
F0.048543689320388349
s((I12
I9
tp136
(I12
I9
tp137
tp138
F0.47887323943661969
s((I3
I9
tp139
(I4
I9
tp140
tp141
F0.48275862068965519
s((I12
I8
tp142
(I13
I8
tp143
tp144
F0.2988505747126437
s(g118
(I8
I5
tp145
tp146
F0.12676056338028169
s((I4
I8
tp147
(I5
I8
tp148
tp149
F1
s(g20
(I12
I9
tp150
tp151
F0.5
s(g70
(I21
I8
tp152
tp153
F0.47712418300653597
s((I9
I5
tp154
(I9
I5
tp155
tp156
F0.61458333333333337
s(g8
(I6
I6
tp157
tp158
F0.28629032258064518
s((I16
I6
tp159
(I17
I5
tp160
tp161
F0.1048951048951049
s((I9
I4
tp162
(I10
I5
tp163
tp164
F0.0042918454935622317
s((I7
I7
tp165
(I7
I7
tp166
tp167
F0.71146245059288538
s(g133
(I18
I7
tp168
tp169
F0.20388349514563106
s(g17
(I16
I9
tp170
tp171
F0.11578947368421053
s(g88
(I17
I6
tp172
tp173
F0.003875968992248062
s((I6
I6
tp174
(I6
I6
tp175
tp176
F0.54248366013071891
s((I15
I9
tp177
(I15
I9
tp178
tp179
F0.17910447761194029
s((I8
I6
tp180
(I7
I7
tp181
tp182
F0.11734693877551021
s(g121
(I13
I10
tp183
tp184
F0.27058823529411763
s(g174
(I7
I6
tp185
tp186
F0.33333333333333331
s((I17
I6
tp187
(I17
I6
tp188
tp189
F0.83464566929133854
s(g23
(I21
I8
tp190
tp191
F0.46153846153846156
s((I10
I5
tp192
(I10
I5
tp193
tp194
F0.22480620155038761
s(g180
(I7
I6
tp195
tp196
F0.10204081632653061
s((I14
I9
tp197
(I15
I8
tp198
tp199
F0.16972477064220184
s(g197
(I15
I9
tp200
tp201
F0.027522935779816515
s((I14
I8
tp202
(I14
I9
tp203
tp204
F0.028634361233480177
s((I7
I8
tp205
(I7
I8
tp206
tp207
F0.54601226993865026
s(g130
(I3
I9
tp208
tp209
F0.35051546391752575
s(g162
(I10
I4
tp210
tp211
F0.30042918454935624
s(g136
(I11
I8
tp212
tp213
F0.14084507042253522
s(g165
(I7
I8
tp214
tp215
F0.28853754940711462
s(g44
(I21
I6
tp216
tp217
F0.33108108108108109
s((I13
I7
tp218
(I13
I8
tp219
tp220
F1
s(g17
(I17
I8
tp221
tp222
F0.58947368421052626
s((I9
I6
tp223
(I8
I6
tp224
tp225
F0.63043478260869568
s(g88
(I16
I7
tp226
tp227
F0.71705426356589153
s((I11
I7
tp228
(I11
I6
tp229
tp230
F0.040404040404040407
s((I22
I8
tp231
(I21
I8
tp232
tp233
F0.34299516908212563
s((I11
I8
tp234
(I11
I7
tp235
tp236
F0.5
s(g124
(I6
I7
tp237
tp238
F0.38834951456310679
s((I18
I7
tp239
(I18
I7
tp240
tp241
F0.125
s((I20
I4
tp242
(I21
I5
tp243
tp244
F0.090909090909090912
s(g11
(I7
I7
tp245
tp246
F0.24390243902439024
s(g139
(I3
I9
tp247
tp248
F0.51034482758620692
s((I5
I8
tp249
(I5
I8
tp250
tp251
F0.58959537572254339
s((I10
I6
tp252
(I9
I6
tp253
tp254
F0.083333333333333329
s(g187
(I17
I7
tp255
tp256
F0.051181102362204724
s((I7
I5
tp257
(I7
I5
tp258
tp259
F0.53896103896103897
s(g231
(I21
I9
tp260
tp261
F0.053140096618357488
s(g252
(I9
I5
tp262
tp263
F0.088888888888888892
s(g47
(I5
I9
tp264
tp265
F0.13934426229508196
s(g91
(I10
I4
tp266
tp267
F0.51700680272108845
s(g23
(I22
I9
tp268
tp269
F0.15384615384615385
s(g127
(I15
I10
tp270
tp271
F0.17419354838709677
s(g118
(I8
I4
tp272
tp273
F0.76056338028169013
s(g41
(I19
I5
tp274
tp275
F0.089622641509433956
s(g142
(I11
I8
tp276
tp277
F0.62068965517241381
s((I18
I5
tp278
(I18
I4
tp279
tp280
F0.61538461538461542
s(g159
(I16
I6
tp281
tp282
F0.49650349650349651
s(g133
(I17
I6
tp283
tp284
F0.13106796116504854
s((I2
I10
tp285
(I3
I10
tp286
tp287
F0.40000000000000002
s(g228
(I11
I7
tp288
tp289
F0.75084175084175087
s(g124
(I6
I9
tp290
tp291
F0.53398058252427183
s(g234
(I11
I8
tp292
tp293
F0.5
s((I11
I6
tp294
(I11
I6
tp295
tp296
F0.22666666666666666
s(g78
(I14
I10
tp297
tp298
F0.46666666666666667
s(g249
(I6
I7
tp299
tp300
F0.11560693641618497
s(g228
(I10
I6
tp301
tp302
F0.19528619528619529
s(g23
(I21
I9
tp303
tp304
F0.15384615384615385
s(g239
(I17
I7
tp305
tp306
F0.875
s(g53
(I19
I4
tp307
tp308
F0.68644067796610164
s(g257
(I8
I4
tp309
tp310
F0.11038961038961038
s(g257
(I8
I5
tp311
tp312
F0.35064935064935066
s(g252
(I10
I6
tp313
tp314
F0.59444444444444444
s(g97
(I19
I6
tp315
tp316
F0.018518518518518517
s((I17
I5
tp317
(I18
I4
tp318
tp319
F0.176056338028169
s(g50
(I20
I6
tp320
tp321
F0.16149068322981366
s(g67
(I15
I8
tp322
tp323
F0.63212435233160624
s(g38
(I5
I9
tp324
tp325
F0.37410071942446044
s((I15
I7
tp326
(I16
I7
tp327
tp328
F0.8529411764705882
s(g94
(I20
I6
tp329
tp330
F0.19327731092436976
s(g205
(I6
I9
tp331
tp332
F0.1165644171779141
s((I17
I7
tp333
(I17
I8
tp334
tp335
F0.33624454148471616
s((I18
I4
tp336
(I18
I4
tp337
tp338
F0.54938271604938271
s(g336
(I19
I4
tp339
tp340
F0.45061728395061729
s((I8
I7
tp341
(I8
I7
tp342
tp343
F0.088235294117647065
s(g242
(I20
I4
tp344
tp345
F0.55844155844155841
s((I16
I8
tp346
(I16
I7
tp347
tp348
F0.0533596837944664
s(g346
(I16
I8
tp349
tp350
F0.83596837944664026
s(g38
(I6
I9
tp351
tp352
F0.46762589928057552
s(g159
(I17
I6
tp353
tp354
F0.39860139860139859
s(g26
(I18
I6
tp355
tp356
F0.14705882352941177
s(g5
(I12
I7
tp357
tp358
F0.46753246753246752
s(g317
(I17
I5
tp359
tp360
F0.4859154929577465
s(g97
(I18
I6
tp361
tp362
F0.64814814814814814
s(g130
(I2
I9
tp363
tp364
F0.03608247422680412
s(g197
(I14
I9
tp365
tp366
F0.66972477064220182
s(g197
(I14
I8
tp367
tp368
F0.13302752293577982
s(g136
(I12
I8
tp369
tp370
F0.38028169014084506
s(g67
(I16
I8
tp371
tp372
F0.13989637305699482
s(g180
(I8
I6
tp373
tp374
F0.62244897959183676
s(g133
(I18
I6
tp375
tp376
F0.61650485436893199
s(g285
(I2
I10
tp377
tp378
F0.40000000000000002
s(g26
(I19
I5
tp379
tp380
F0.60784313725490191
s(g223
(I9
I5
tp381
tp382
F0.32608695652173914
s(g115
(I8
I4
tp383
tp384
F0.52027027027027029
s(g205
(I6
I8
tp385
tp386
F0.33742331288343558
s(g278
(I18
I5
tp387
tp388
F0.19230769230769232
s(g67
(I15
I7
tp389
tp390
F0.15025906735751296
s((I10
I7
tp391
(I10
I6
tp392
tp393
F1
s(g47
(I4
I9
tp394
tp395
F0.70901639344262291
s(g112
(I4
I10
tp396
tp397
F0.66355140186915884
s((I22
I6
tp398
(I22
I7
tp399
tp400
F0.49664429530201343
s(g61
(I11
I6
tp401
tp402
F0.33333333333333331
s(g70
(I22
I8
tp403
tp404
F0.013071895424836602
s(g105
(I22
I9
tp405
tp406
F0.66666666666666663
s((I20
I7
tp407
(I20
I6
tp408
tp409
F1
s(g85
(I5
I8
tp410
tp411
F0.28813559322033899
s(g142
(I12
I8
tp412
tp413
F0.080459770114942528
s(g154
(I9
I6
tp414
tp415
F0.15104166666666666
s(g192
(I9
I5
tp416
tp417
F0.34108527131782945
s(g326
(I15
I7
tp418
tp419
F0.14705882352941177
s((I22
I7
tp420
(I22
I7
tp421
tp422
F0.68354430379746833
s(g333
(I17
I7
tp423
tp424
F0.66375545851528384
s(g231
(I22
I8
tp425
tp426
F0.60386473429951693
s(g249
(I5
I7
tp427
tp428
F0.069364161849710976
s(g121
(I14
I10
tp429
tp430
F0.70196078431372544
s(g285
(I3
I9
tp431
tp432
F0.20000000000000001
s(g139
(I3
I10
tp433
tp434
F0.0068965517241379309
s(g11
(I7
I6
tp435
tp436
F0.12195121951219512
s(g100
(I2
I10
tp437
tp438
F0.33333333333333331
s(g47
(I5
I8
tp439
tp440
F0.14754098360655737
s(g294
(I12
I6
tp441
tp442
F0.61333333333333329
s(g73
(I4
I10
tp443
tp444
F0.45569620253164556
s(g242
(I20
I5
tp445
tp446
F0.35064935064935066
s(g187
(I17
I5
tp447
tp448
F0.1141732283464567
s(g58
(I12
I9
tp449
tp450
F0.11188811188811189
s(g278
(I18
I6
tp451
tp452
F0.19230769230769232
s(g177
(I15
I10
tp453
tp454
F0.73134328358208955
s(g177
(I15
I8
tp455
tp456
F0.089552238805970144
s(g14
(I14
I8
tp457
tp458
F0.073033707865168537
s(g223
(I9
I6
tp459
tp460
F0.043478260869565216
s(g202
(I15
I8
tp461
tp462
F0.061674008810572688
s(g154
(I8
I5
tp463
tp464
F0.041666666666666664
s(g100
(I3
I9
tp465
tp466
F0.44444444444444442
s(g14
(I13
I9
tp467
tp468
F0.21910112359550563
s(g341
(I7
I7
tp469
tp470
F0.91176470588235292
s(g346
(I16
I9
tp471
tp472
F0.11067193675889328
s(g154
(I8
I6
tp473
tp474
F0.19270833333333334
s(g294
(I10
I6
tp475
tp476
F0.16
s(g31
(I20
I5
tp477
tp478
F0.17741935483870969
s(g26
(I18
I5
tp479
tp480
F0.073529411764705885
s(g249
(I6
I8
tp481
tp482
F0.22543352601156069
s(g162
(I9
I4
tp483
tp484
F0.69527896995708149
s(g317
(I18
I5
tp485
tp486
F0.3380281690140845
s(g91
(I10
I5
tp487
tp488
F0.37414965986394561
s(g202
(I14
I8
tp489
tp490
F0.9096916299559471
s(g64
(I12
I8
tp491
tp492
F0.10970464135021098
s(g64
(I12
I7
tp493
tp494
F0.69198312236286919
s(g14
(I13
I8
tp495
tp496
F0.5898876404494382
s(g420
(I22
I8
tp497
tp498
F0.31645569620253167
s(g252
(I10
I5
tp499
tp500
F0.23333333333333334
s(g44
(I22
I6
tp501
tp502
F0.16891891891891891
s(g398
(I22
I6
tp503
tp504
F0.50335570469798663
s(g85
(I5
I10
tp505
tp506
F0.43220338983050849
s(g53
(I20
I5
tp507
tp508
F0.025423728813559324
s(g180
(I8
I7
tp509
tp510
F0.15816326530612246
s(g174
(I7
I5
tp511
tp512
F0.12418300653594772
s(g228
(I10
I7
tp513
tp514
F0.013468013468013467
s(g127
(I16
I9
tp515
tp516
F0.50967741935483868
s(g64
(I13
I8
tp517
tp518
F0.17721518987341772
s(g192
(I11
I5
tp519
tp520
F0.43410852713178294
s.