(dp1
((I6
I12
tp2
(I5
I12
tp3
tp4
F0.5
s((I2
I11
tp5
(I2
I10
tp6
tp7
F0.055045871559633031
s((I3
I10
tp8
(I4
I11
tp9
tp10
F0.036231884057971016
s((I2
I10
tp11
(I1
I10
tp12
tp13
F0.54545454545454541
s((I8
I10
tp14
(I8
I10
tp15
tp16
F0.59712230215827333
s((I7
I10
tp17
(I8
I10
tp18
tp19
F0.17884615384615385
s((I8
I3
tp20
(I8
I4
tp21
tp22
F0.25615763546798032
s((I4
I4
tp23
(I3
I5
tp24
tp25
F1
s((I1
I6
tp26
(I1
I6
tp27
tp28
F0.70977917981072558
s((I8
I4
tp29
(I9
I4
tp30
tp31
F1
s((I1
I5
tp32
(I2
I5
tp33
tp34
F0.18099547511312217
s((I10
I6
tp35
(I10
I6
tp36
tp37
F0.46540880503144655
s((I11
I9
tp38
(I10
I9
tp39
tp40
F0.15384615384615385
s((I6
I10
tp41
(I7
I10
tp42
tp43
F0.63225806451612898
s((I4
I10
tp44
(I4
I10
tp45
tp46
F0.45555555555555555
s((I11
I7
tp47
(I11
I8
tp48
tp49
F0.5
s((I10
I10
tp50
(I9
I10
tp51
tp52
F0.14832535885167464
s((I10
I9
tp53
(I10
I9
tp54
tp55
F0.72077922077922074
s((I3
I3
tp56
(I4
I3
tp57
tp58
F0.35856573705179284
s((I10
I8
tp59
(I10
I9
tp60
tp61
F0.46892655367231639
s((I7
I3
tp62
(I7
I3
tp63
tp64
F0.76086956521739135
s((I1
I8
tp65
(I1
I7
tp66
tp67
F0.49729729729729732
s(g5
(I2
I11
tp68
tp69
F0.58256880733944949
s(g14
(I9
I9
tp70
tp71
F0.039568345323741004
s((I11
I6
tp72
(I11
I6
tp73
tp74
F0.59999999999999998
s(g2
(I6
I12
tp75
tp76
F0.5
s((I5
I13
tp77
(I4
I13
tp78
tp79
F0.33333333333333331
s((I3
I7
tp80
(I3
I7
tp81
tp82
F0.53554502369668244
s((I3
I12
tp83
(I2
I11
tp84
tp85
F0.22222222222222221
s((I9
I10
tp86
(I9
I9
tp87
tp88
F0.03125
s((I3
I4
tp89
(I3
I5
tp90
tp91
F0.20833333333333334
s(g8
(I3
I10
tp92
tp93
F0.60869565217391308
s((I9
I11
tp94
(I8
I12
tp95
tp96
F0.33333333333333331
s(g38
(I11
I10
tp97
tp98
F0.038461538461538464
s((I5
I10
tp99
(I5
I10
tp100
tp101
F0.539906103286385
s((I4
I12
tp102
(I3
I12
tp103
tp104
F0.25495750708215298
s((I2
I8
tp105
(I2
I8
tp106
tp107
F0.5
s((I8
I5
tp108
(I8
I5
tp109
tp110
F0.60563380281690138
s((I1
I9
tp111
(I1
I8
tp112
tp113
F0.51977401129943501
s((I10
I5
tp114
(I10
I5
tp115
tp116
F0.63485477178423233
s((I5
I5
tp117
(I4
I5
tp118
tp119
F0.63522012578616349
s(g86
(I9
I11
tp120
tp121
F0.96875
s((I4
I11
tp122
(I5
I11
tp123
tp124
F0.47826086956521741
s(g47
(I11
I7
tp125
tp126
F0.5
s((I8
I6
tp127
(I8
I5
tp128
tp129
F0.24181360201511334
s((I8
I8
tp130
(I8
I8
tp131
tp132
F0.53881278538812782
s(g62
(I8
I3
tp133
tp134
F0.2391304347826087
s(g72
(I11
I7
tp135
tp136
F0.40000000000000002
s((I9
I4
tp137
(I10
I5
tp138
tp139
F0.34999999999999998
s(g77
(I5
I13
tp140
tp141
F0.66666666666666663
s((I2
I4
tp142
(I2
I3
tp143
tp144
F0.014354066985645933
s((I5
I3
tp145
(I6
I3
tp146
tp147
F0.4972067039106145
s(g127
(I8
I6
tp148
tp149
F0.74307304785894202
s((I1
I7
tp150
(I1
I7
tp151
tp152
F0.51063829787234039
s((I7
I4
tp153
(I6
I4
tp154
tp155
F0.5
s((I3
I8
tp156
(I3
I8
tp157
tp158
F0.35947712418300654
s((I6
I4
tp159
(I5
I4
tp160
tp161
F0.5
s((I2
I6
tp162
(I2
I6
tp163
tp164
F0.5
s(g53
(I11
I10
tp165
tp166
F0.025974025974025976
s((I4
I5
tp167
(I4
I5
tp168
tp169
F0.80620155038759689
s((I2
I7
tp170
(I2
I7
tp171
tp172
F0.5
s(g89
(I3
I4
tp173
tp174
F0.20833333333333334
s(g8
(I4
I10
tp175
tp176
F0.35507246376811596
s(g167
(I3
I4
tp177
tp178
F0.0096899224806201549
s((I9
I5
tp179
(I10
I5
tp180
tp181
F0.5
s((I9
I6
tp182
(I9
I6
tp183
tp184
F0.29411764705882354
s((I9
I9
tp185
(I9
I8
tp186
tp187
F0.5
s(g32
(I1
I5
tp188
tp189
F0.58823529411764708
s((I9
I7
tp190
(I9
I6
tp191
tp192
F0.54545454545454541
s(g122
(I4
I11
tp193
tp194
F0.52173913043478259
s(g127
(I9
I5
tp195
tp196
F0.015113350125944584
s((I7
I11
tp197
(I7
I11
tp198
tp199
F0.5
s((I7
I5
tp200
(I7
I5
tp201
tp202
F0.455026455026455
s((I6
I5
tp203
(I5
I5
tp204
tp205
F0.46188340807174888
s((I3
I5
tp206
(I2
I6
tp207
tp208
F0.03272727272727273
s((I3
I6
tp209
(I3
I6
tp210
tp211
F0.45604395604395603
s((I1
I10
tp212
(I1
I9
tp213
tp214
F0.35658914728682173
s(g156
(I3
I9
tp215
tp216
F0.64052287581699341
s(g108
(I7
I5
tp217
tp218
F0.36267605633802819
s((I6
I13
tp219
(I6
I13
tp220
tp221
F0.66666666666666663
s((I11
I10
tp222
(I10
I10
tp223
tp224
F0.47826086956521741
s(g117
(I5
I5
tp225
tp226
F0.36477987421383645
s((I9
I8
tp227
(I9
I8
tp228
tp229
F0.5
s(g162
(I2
I7
tp230
tp231
F0.5
s(g53
(I10
I10
tp232
tp233
F0.25324675324675322
s(g11
(I3
I10
tp234
tp235
F0.22727272727272727
s(g5
(I1
I10
tp236
tp237
F0.36238532110091742
s((I11
I8
tp238
(I11
I8
tp239
tp240
F0.33333333333333331
s(g20
(I9
I4
tp241
tp242
F0.19211822660098521
s((I8
I11
tp243
(I8
I11
tp244
tp245
F0.12903225806451613
s((I0
I5
tp246
(I1
I5
tp247
tp248
F0.37931034482758619
s(g206
(I3
I5
tp249
tp250
F0.60363636363636364
s((I7
I12
tp251
(I6
I12
tp252
tp253
F0.52352941176470591
s(g38
(I10
I10
tp254
tp255
F0.038461538461538464
s(g209
(I3
I7
tp256
tp257
F0.54395604395604391
s(g102
(I4
I12
tp258
tp259
F0.74504249291784708
s(g32
(I2
I4
tp260
tp261
F0.23076923076923078
s((I2
I9
tp262
(I3
I10
tp263
tp264
F1
s((I5
I4
tp265
(I4
I4
tp266
tp267
F0.5
s(g83
(I3
I11
tp268
tp269
F0.19907407407407407
s((I3
I9
tp270
(I2
I10
tp271
tp272
F0.012919896640826873
s(g212
(I1
I10
tp273
tp274
F0.64341085271317833
s(g44
(I5
I10
tp275
tp276
F0.5444444444444444
s((I4
I3
tp277
(I4
I3
tp278
tp279
F0.47023809523809523
s(g20
(I8
I3
tp280
tp281
F0.55172413793103448
s(g41
(I6
I10
tp282
tp283
F0.36774193548387096
s((I7
I13
tp284
(I7
I13
tp285
tp286
F0.66666666666666663
s((I8
I7
tp287
(I8
I6
tp288
tp289
F0.6211180124223602
s(g80
(I3
I8
tp290
tp291
F0.46445497630331756
s(g287
(I8
I7
tp292
tp293
F0.37888198757763975
s((I10
I7
tp294
(I10
I8
tp295
tp296
F0.49122807017543857
s(g265
(I5
I4
tp297
tp298
F0.5
s(g26
(I1
I5
tp299
tp300
F0.25236593059936907
s(g159
(I6
I4
tp301
tp302
F0.5
s(g142
(I3
I4
tp303
tp304
F0.066985645933014357
s((I6
I3
tp305
(I6
I3
tp306
tp307
F0.4853801169590643
s((I4
I13
tp308
(I3
I12
tp309
tp310
F0.25
s((I2
I5
tp311
(I2
I4
tp312
tp313
F1
s(g26
(I0
I5
tp314
tp315
F0.037854889589905363
s(g114
(I10
I6
tp316
tp317
F0.35269709543568467
s(g14
(I8
I9
tp318
tp319
F0.36330935251798563
s((I5
I11
tp320
(I5
I11
tp321
tp322
F0.47619047619047616
s((I2
I3
tp323
(I3
I3
tp324
tp325
F1
s(g270
(I3
I9
tp326
tp327
F0.75193798449612403
s(g170
(I2
I8
tp328
tp329
F0.5
s(g99
(I6
I10
tp330
tp331
F0.460093896713615
s(g227
(I9
I7
tp332
tp333
F0.5
s(g305
(I7
I3
tp334
tp335
F0.51461988304093564
s(g219
(I5
I13
tp336
tp337
F0.33333333333333331
s((I5
I12
tp338
(I5
I12
tp339
tp340
F0.49142857142857144
s(g137
(I9
I4
tp341
tp342
F0.59545454545454546
s(g167
(I3
I5
tp343
tp344
F0.18410852713178294
s(g190
(I9
I7
tp345
tp346
F0.45454545454545453
s(g294
(I10
I7
tp347
tp348
F0.50877192982456143
s(g222
(I11
I10
tp349
tp350
F0.52173913043478259
s(g142
(I3
I3
tp351
tp352
F0.34928229665071769
s(g130
(I8
I7
tp353
tp354
F0.46118721461187212
s((I6
I11
tp355
(I7
I11
tp356
tp357
F0.5
s((I3
I11
tp358
(I2
I11
tp359
tp360
F1
s((I8
I9
tp361
(I8
I9
tp362
tp363
F0.45989304812834225
s(g185
(I9
I9
tp364
tp365
F0.5
s(g94
(I9
I11
tp366
tp367
F0.57746478873239437
s(g35
(I10
I7
tp368
tp369
F0.53459119496855345
s(g246
(I0
I5
tp370
tp371
F0.62068965517241381
s(g179
(I9
I5
tp372
tp373
F0.25
s(g308
(I4
I13
tp374
tp375
F0.5
s(g94
(I8
I11
tp376
tp377
F0.089201877934272297
s(g17
(I8
I11
tp378
tp379
F0.0096153846153846159
s(g182
(I8
I6
tp380
tp381
F0.11764705882352941
s(g270
(I3
I10
tp382
tp383
F0.23514211886304909
s(g89
(I3
I3
tp384
tp385
F0.58333333333333337
s(g355
(I6
I11
tp386
tp387
F0.5
s(g111
(I1
I9
tp388
tp389
F0.48022598870056499
s(g243
(I8
I10
tp390
tp391
F0.25806451612903225
s(g182
(I8
I5
tp392
tp393
F0.58823529411764708
s(g284
(I6
I13
tp394
tp395
F0.33333333333333331
s(g150
(I1
I6
tp396
tp397
F0.48936170212765956
s(g50
(I9
I11
tp398
tp399
F0.28229665071770332
s(g65
(I1
I8
tp400
tp401
F0.50270270270270268
s(g277
(I5
I3
tp402
tp403
F0.52976190476190477
s(g11
(I2
I10
tp404
tp405
F0.22727272727272727
s(g179
(I8
I5
tp406
tp407
F0.25
s(g105
(I2
I9
tp408
tp409
F0.5
s(g137
(I9
I5
tp410
tp411
F0.054545454545454543
s(g153
(I7
I4
tp412
tp413
F0.5
s(g243
(I8
I12
tp414
tp415
F0.61290322580645162
s(g38
(I11
I9
tp416
tp417
F0.76923076923076927
s((I8
I12
tp418
(I8
I12
tp419
tp420
F0.6484375
s(g197
(I8
I10
tp421
tp422
F0.5
s(g206
(I3
I6
tp423
tp424
F0.36363636363636365
s(g114
(I11
I6
tp425
tp426
F0.012448132780082987
s(g418
(I7
I12
tp427
tp428
F0.3515625
s(g361
(I8
I8
tp429
tp430
F0.5401069518716578
s(g142
(I2
I4
tp431
tp432
F0.56937799043062198
s(g203
(I6
I5
tp433
tp434
F0.53811659192825112
s(g56
(I3
I3
tp435
tp436
F0.64143426294820716
s(g108
(I7
I4
tp437
tp438
F0.031690140845070422
s(g238
(I11
I9
tp439
tp440
F0.66666666666666663
s(g338
(I4
I12
tp441
tp442
F0.50857142857142856
s(g59
(I10
I8
tp443
tp444
F0.53107344632768361
s(g50
(I10
I10
tp445
tp446
F0.56937799043062198
s(g251
(I7
I12
tp447
tp448
F0.47647058823529409
s(g200
(I6
I5
tp449
tp450
F0.544973544973545
s(g308
(I4
I12
tp451
tp452
F0.25
s(g17
(I7
I10
tp453
tp454
F0.81153846153846154
s(g320
(I6
I11
tp455
tp456
F0.52380952380952384
s(g145
(I5
I3
tp457
tp458
F0.5027932960893855
s((I8
I13
tp459
(I7
I13
tp460
tp461
F1
s(g83
(I3
I12
tp462
tp463
F0.57870370370370372
s.